
ledc.elf：     文件格式 elf32-littlearm


Disassembly of section .text:

87800000 <_bss_start>:
87800000:	87800194 			; <UNDEFINED> instruction: 0x87800194

87800004 <_bss_end>:
87800004:	87800194 			; <UNDEFINED> instruction: 0x87800194

87800008 <_start>:
87800008:	e10f0000 	mrs	r0, CPSR
8780000c:	e3c0001f 	bic	r0, r0, #31
87800010:	e3800013 	orr	r0, r0, #19
87800014:	e129f000 	msr	CPSR_fc, r0
87800018:	e51f0020 	ldr	r0, [pc, #-32]	; 87800000 <_bss_start>
8780001c:	e51f1020 	ldr	r1, [pc, #-32]	; 87800004 <_bss_end>
87800020:	e3a02000 	mov	r2, #0

87800024 <bss_loop>:
87800024:	e8a00004 	stmia	r0!, {r2}
87800028:	e1500001 	cmp	r0, r1
8780002c:	dafffffc 	ble	87800024 <bss_loop>
87800030:	e51fd000 	ldr	sp, [pc, #-0]	; 87800038 <bss_loop+0x14>
87800034:	ea000047 	b	87800158 <__main_from_arm>
87800038:	80200000 	eorhi	r0, r0, r0
8780003c:	00001e41 	andeq	r1, r0, r1, asr #28
87800040:	61656100 	cmnvs	r5, r0, lsl #2
87800044:	01006962 	tsteq	r0, r2, ror #18
87800048:	00000014 	andeq	r0, r0, r4, lsl r0
8780004c:	412d3705 	teqmi	sp, r5, lsl #14
87800050:	070a0600 	streq	r0, [sl, -r0, lsl #12]
87800054:	09010841 	stmdbeq	r1, {r0, r6, fp}
87800058:	00040a02 	andeq	r0, r4, r2, lsl #20

8780005c <system_clk_enable>:
8780005c:	f44f 4380 	mov.w	r3, #16384	; 0x4000
87800060:	f04f 32ff 	mov.w	r2, #4294967295	; 0xffffffff
87800064:	f2c0 230c 	movt	r3, #524	; 0x20c
87800068:	669a      	str	r2, [r3, #104]	; 0x68
8780006a:	66da      	str	r2, [r3, #108]	; 0x6c
8780006c:	671a      	str	r2, [r3, #112]	; 0x70
8780006e:	675a      	str	r2, [r3, #116]	; 0x74
87800070:	679a      	str	r2, [r3, #120]	; 0x78
87800072:	67da      	str	r2, [r3, #124]	; 0x7c
87800074:	f8c3 2080 	str.w	r2, [r3, #128]	; 0x80
87800078:	4770      	bx	lr
8780007a:	bf00      	nop

8780007c <delay_1ms>:
8780007c:	b082      	sub	sp, #8
8780007e:	f240 73ff 	movw	r3, #2047	; 0x7ff
87800082:	9301      	str	r3, [sp, #4]
87800084:	9b01      	ldr	r3, [sp, #4]
87800086:	b12b      	cbz	r3, 87800094 <delay_1ms+0x18>
87800088:	9b01      	ldr	r3, [sp, #4]
8780008a:	3b01      	subs	r3, #1
8780008c:	9301      	str	r3, [sp, #4]
8780008e:	9b01      	ldr	r3, [sp, #4]
87800090:	2b00      	cmp	r3, #0
87800092:	d1f9      	bne.n	87800088 <delay_1ms+0xc>
87800094:	b002      	add	sp, #8
87800096:	4770      	bx	lr

87800098 <delay_ms>:
87800098:	f240 72ff 	movw	r2, #2047	; 0x7ff
8780009c:	b084      	sub	sp, #16
8780009e:	9001      	str	r0, [sp, #4]
878000a0:	9b01      	ldr	r3, [sp, #4]
878000a2:	b17b      	cbz	r3, 878000c4 <delay_ms+0x2c>
878000a4:	9b01      	ldr	r3, [sp, #4]
878000a6:	3b01      	subs	r3, #1
878000a8:	9301      	str	r3, [sp, #4]
878000aa:	9203      	str	r2, [sp, #12]
878000ac:	9b03      	ldr	r3, [sp, #12]
878000ae:	2b00      	cmp	r3, #0
878000b0:	d0f6      	beq.n	878000a0 <delay_ms+0x8>
878000b2:	9b03      	ldr	r3, [sp, #12]
878000b4:	3b01      	subs	r3, #1
878000b6:	9303      	str	r3, [sp, #12]
878000b8:	9b03      	ldr	r3, [sp, #12]
878000ba:	2b00      	cmp	r3, #0
878000bc:	d1f9      	bne.n	878000b2 <delay_ms+0x1a>
878000be:	9b01      	ldr	r3, [sp, #4]
878000c0:	2b00      	cmp	r3, #0
878000c2:	d1ef      	bne.n	878000a4 <delay_ms+0xc>
878000c4:	b004      	add	sp, #16
878000c6:	4770      	bx	lr

878000c8 <led_gpio_init>:
878000c8:	2168      	movs	r1, #104	; 0x68
878000ca:	f44f 723d 	mov.w	r2, #756	; 0x2f4
878000ce:	f44f 4340 	mov.w	r3, #49152	; 0xc000
878000d2:	b410      	push	{r4}
878000d4:	f2c0 2309 	movt	r3, #521	; 0x209
878000d8:	2405      	movs	r4, #5
878000da:	f2c0 220e 	movt	r2, #526	; 0x20e
878000de:	f2c0 210e 	movt	r1, #526	; 0x20e
878000e2:	f241 00b0 	movw	r0, #4272	; 0x10b0
878000e6:	600c      	str	r4, [r1, #0]
878000e8:	6010      	str	r0, [r2, #0]
878000ea:	685a      	ldr	r2, [r3, #4]
878000ec:	f85d 4b04 	ldr.w	r4, [sp], #4
878000f0:	f042 0208 	orr.w	r2, r2, #8
878000f4:	605a      	str	r2, [r3, #4]
878000f6:	681a      	ldr	r2, [r3, #0]
878000f8:	f022 0208 	bic.w	r2, r2, #8
878000fc:	601a      	str	r2, [r3, #0]
878000fe:	4770      	bx	lr

87800100 <led_on>:
87800100:	f44f 4340 	mov.w	r3, #49152	; 0xc000
87800104:	f2c0 2309 	movt	r3, #521	; 0x209
87800108:	681a      	ldr	r2, [r3, #0]
8780010a:	f022 0208 	bic.w	r2, r2, #8
8780010e:	601a      	str	r2, [r3, #0]
87800110:	4770      	bx	lr
87800112:	bf00      	nop

87800114 <led_off>:
87800114:	f44f 4340 	mov.w	r3, #49152	; 0xc000
87800118:	f2c0 2309 	movt	r3, #521	; 0x209
8780011c:	681a      	ldr	r2, [r3, #0]
8780011e:	f042 0208 	orr.w	r2, r2, #8
87800122:	601a      	str	r2, [r3, #0]
87800124:	4770      	bx	lr
87800126:	bf00      	nop

87800128 <led_switch>:
87800128:	b950      	cbnz	r0, 87800140 <led_switch+0x18>
8780012a:	2901      	cmp	r1, #1
8780012c:	d009      	beq.n	87800142 <led_switch+0x1a>
8780012e:	b939      	cbnz	r1, 87800140 <led_switch+0x18>
87800130:	f44f 4340 	mov.w	r3, #49152	; 0xc000
87800134:	f2c0 2309 	movt	r3, #521	; 0x209
87800138:	681a      	ldr	r2, [r3, #0]
8780013a:	f042 0208 	orr.w	r2, r2, #8
8780013e:	601a      	str	r2, [r3, #0]
87800140:	4770      	bx	lr
87800142:	f44f 4340 	mov.w	r3, #49152	; 0xc000
87800146:	f2c0 2309 	movt	r3, #521	; 0x209
8780014a:	681a      	ldr	r2, [r3, #0]
8780014c:	f022 0208 	bic.w	r2, r2, #8
87800150:	601a      	str	r2, [r3, #0]
87800152:	4770      	bx	lr
87800154:	0000      	movs	r0, r0
	...

87800158 <__main_from_arm>:
87800158:	e51ff004 	ldr	pc, [pc, #-4]	; 8780015c <__main_from_arm+0x4>
8780015c:	87800161 	strhi	r0, [r0, r1, ror #2]

Disassembly of section .text.startup:

87800160 <main>:
87800160:	b508      	push	{r3, lr}
87800162:	f240 1490 	movw	r4, #400	; 0x190
87800166:	f2c8 7480 	movt	r4, #34688	; 0x8780
8780016a:	f7ff ff77 	bl	8780005c <system_clk_enable>
8780016e:	f7ff ffab 	bl	878000c8 <led_gpio_init>
87800172:	2100      	movs	r1, #0
87800174:	4608      	mov	r0, r1
87800176:	f7ff ffd7 	bl	87800128 <led_switch>
8780017a:	6820      	ldr	r0, [r4, #0]
8780017c:	f7ff ff8c 	bl	87800098 <delay_ms>
87800180:	2101      	movs	r1, #1
87800182:	2000      	movs	r0, #0
87800184:	f7ff ffd0 	bl	87800128 <led_switch>
87800188:	6820      	ldr	r0, [r4, #0]
8780018a:	f7ff ff85 	bl	87800098 <delay_ms>
8780018e:	e7f0      	b.n	87800172 <main+0x12>

Disassembly of section .data:

87800190 <waittime>:
87800190:	000001f4 	strdeq	r0, [r0], -r4

Disassembly of section .comment:

00000000 <.comment>:
   0:	3a434347 	bcc	10d0d24 <_bss_start-0x8672f2dc>
   4:	694c2820 	stmdbvs	ip, {r5, fp, sp}^
   8:	6f72616e 	svcvs	0x0072616e
   c:	43434720 	movtmi	r4, #14112	; 0x3720
  10:	392e3420 	stmdbcc	lr!, {r5, sl, ip, sp}
  14:	3130322d 	teqcc	r0, sp, lsr #4
  18:	31302e37 	teqcc	r0, r7, lsr lr
  1c:	2e342029 	cdpcs	0, 3, cr2, cr4, cr9, {1}
  20:	00342e39 	eorseq	r2, r4, r9, lsr lr

Disassembly of section .ARM.attributes:

00000000 <.ARM.attributes>:
   0:	00003041 	andeq	r3, r0, r1, asr #32
   4:	61656100 	cmnvs	r5, r0, lsl #2
   8:	01006962 	tsteq	r0, r2, ror #18
   c:	00000026 	andeq	r0, r0, r6, lsr #32
  10:	412d3705 	teqmi	sp, r5, lsl #14
  14:	070a0600 	streq	r0, [sl, -r0, lsl #12]
  18:	09010841 	stmdbeq	r1, {r0, r6, fp}
  1c:	12040a02 	andne	r0, r4, #8192	; 0x2000
  20:	15011404 	strne	r1, [r1, #-1028]	; 0x404
  24:	18031701 	stmdane	r3, {r0, r8, r9, sl, ip}
  28:	1b021a01 	blne	86834 <_bss_start-0x877797cc>
  2c:	22011c03 	andcs	r1, r1, #768	; 0x300
  30:	地址 0x0000000000000030 越界。

